target datalayout = "e-m:e-p270:32:32-p271:32:32-p272:64:64-i64:64-i128:128-f80:128-n8:16:32:64-S128"
target triple = "x86_64-pc-linux-gnu"

%struct.SDL_BlitInfo = type { ptr, ptr, i32, i32, i32, i32, ptr, ptr, i32, i32, i32, i32, ptr, ptr, ptr, ptr, ptr, ptr, i32, i32, i8, i8, i8, i8 }

; Function Attrs: nounwind uwtable
define internal void @SDL_Blit_RGBA8888_ARGB8888_Modulate_Scale(ptr noundef %0) #0 {
  %2 = alloca ptr, align 8
  %3 = alloca i32, align 4
  %4 = alloca i32, align 4
  %5 = alloca i32, align 4
  %6 = alloca i32, align 4
  %7 = alloca i32, align 4
  %8 = alloca i32, align 4
  %9 = alloca i32, align 4
  %10 = alloca i32, align 4
  %11 = alloca i32, align 4
  %12 = alloca i32, align 4
  %13 = alloca i64, align 8
  %14 = alloca i64, align 8
  %15 = alloca i64, align 8
  %16 = alloca i64, align 8
  %17 = alloca i64, align 8
  %18 = alloca i64, align 8
  %19 = alloca ptr, align 8
  %20 = alloca ptr, align 8
  %21 = alloca i32, align 4
  %22 = alloca i16, align 2
  %23 = alloca i16, align 2
  %24 = alloca i16, align 2
  %25 = alloca i16, align 2
  store ptr %0, ptr %2, align 8
  call void @llvm.lifetime.start.p0(i64 4, ptr %3) #2
  %26 = load ptr, ptr %2, align 8
  %27 = getelementptr inbounds nuw %struct.SDL_BlitInfo, ptr %26, i32 0, i32 18
  %28 = load i32, ptr %27, align 8
  store i32 %28, ptr %3, align 4
  call void @llvm.lifetime.start.p0(i64 4, ptr %4) #2
  %29 = load ptr, ptr %2, align 8
  %30 = getelementptr inbounds nuw %struct.SDL_BlitInfo, ptr %29, i32 0, i32 20
  %31 = load i8, ptr %30, align 8
  %32 = zext i8 %31 to i32
  store i32 %32, ptr %4, align 4
  call void @llvm.lifetime.start.p0(i64 4, ptr %5) #2
  %33 = load ptr, ptr %2, align 8
  %34 = getelementptr inbounds nuw %struct.SDL_BlitInfo, ptr %33, i32 0, i32 21
  %35 = load i8, ptr %34, align 1
  %36 = zext i8 %35 to i32
  store i32 %36, ptr %5, align 4
  call void @llvm.lifetime.start.p0(i64 4, ptr %6) #2
  %37 = load ptr, ptr %2, align 8
  %38 = getelementptr inbounds nuw %struct.SDL_BlitInfo, ptr %37, i32 0, i32 22
  %39 = load i8, ptr %38, align 2
  %40 = zext i8 %39 to i32
  store i32 %40, ptr %6, align 4
  call void @llvm.lifetime.start.p0(i64 4, ptr %7) #2
  %41 = load ptr, ptr %2, align 8
  %42 = getelementptr inbounds nuw %struct.SDL_BlitInfo, ptr %41, i32 0, i32 23
  %43 = load i8, ptr %42, align 1
  %44 = zext i8 %43 to i32
  store i32 %44, ptr %7, align 4
  call void @llvm.lifetime.start.p0(i64 4, ptr %8) #2
  call void @llvm.lifetime.start.p0(i64 4, ptr %9) #2
  call void @llvm.lifetime.start.p0(i64 4, ptr %10) #2
  call void @llvm.lifetime.start.p0(i64 4, ptr %11) #2
  call void @llvm.lifetime.start.p0(i64 4, ptr %12) #2
  call void @llvm.lifetime.start.p0(i64 8, ptr %13) #2
  call void @llvm.lifetime.start.p0(i64 8, ptr %14) #2
  call void @llvm.lifetime.start.p0(i64 8, ptr %15) #2
  call void @llvm.lifetime.start.p0(i64 8, ptr %16) #2
  call void @llvm.lifetime.start.p0(i64 8, ptr %17) #2
  call void @llvm.lifetime.start.p0(i64 8, ptr %18) #2
  %45 = load ptr, ptr %2, align 8
  %46 = getelementptr inbounds nuw %struct.SDL_BlitInfo, ptr %45, i32 0, i32 3
  %47 = load i32, ptr %46, align 4
  %48 = sext i32 %47 to i64
  %49 = shl i64 %48, 16
  %50 = load ptr, ptr %2, align 8
  %51 = getelementptr inbounds nuw %struct.SDL_BlitInfo, ptr %50, i32 0, i32 9
  %52 = load i32, ptr %51, align 4
  %53 = sext i32 %52 to i64
  %54 = udiv i64 %49, %53
  store i64 %54, ptr %17, align 8
  %55 = load ptr, ptr %2, align 8
  %56 = getelementptr inbounds nuw %struct.SDL_BlitInfo, ptr %55, i32 0, i32 2
  %57 = load i32, ptr %56, align 8
  %58 = sext i32 %57 to i64
  %59 = shl i64 %58, 16
  %60 = load ptr, ptr %2, align 8
  %61 = getelementptr inbounds nuw %struct.SDL_BlitInfo, ptr %60, i32 0, i32 8
  %62 = load i32, ptr %61, align 8
  %63 = sext i32 %62 to i64
  %64 = udiv i64 %59, %63
  store i64 %64, ptr %18, align 8
  %65 = load i64, ptr %17, align 8
  %66 = udiv i64 %65, 2
  store i64 %66, ptr %15, align 8
  br label %67

67:                                               ; preds = %232, %1
  %68 = load ptr, ptr %2, align 8
  %69 = getelementptr inbounds nuw %struct.SDL_BlitInfo, ptr %68, i32 0, i32 9
  %70 = load i32, ptr %69, align 4
  %71 = add nsw i32 %70, -1
  store i32 %71, ptr %69, align 4
  %72 = icmp ne i32 %70, 0
  br i1 %72, label %73, label %244

73:                                               ; preds = %67
  call void @llvm.lifetime.start.p0(i64 8, ptr %19) #2
  store ptr null, ptr %19, align 8
  call void @llvm.lifetime.start.p0(i64 8, ptr %20) #2
  %74 = load ptr, ptr %2, align 8
  %75 = getelementptr inbounds nuw %struct.SDL_BlitInfo, ptr %74, i32 0, i32 7
  %76 = load ptr, ptr %75, align 8
  store ptr %76, ptr %20, align 8
  call void @llvm.lifetime.start.p0(i64 4, ptr %21) #2
  %77 = load ptr, ptr %2, align 8
  %78 = getelementptr inbounds nuw %struct.SDL_BlitInfo, ptr %77, i32 0, i32 8
  %79 = load i32, ptr %78, align 8
  store i32 %79, ptr %21, align 4
  %80 = load i64, ptr %18, align 8
  %81 = udiv i64 %80, 2
  store i64 %81, ptr %16, align 8
  %82 = load i64, ptr %15, align 8
  %83 = lshr i64 %82, 16
  store i64 %83, ptr %13, align 8
  br label %84

84:                                               ; preds = %214, %73
  %85 = load i32, ptr %21, align 4
  %86 = add nsw i32 %85, -1
  store i32 %86, ptr %21, align 4
  %87 = icmp ne i32 %85, 0
  br i1 %87, label %88, label %232

88:                                               ; preds = %84
  %89 = load i64, ptr %16, align 8
  %90 = lshr i64 %89, 16
  store i64 %90, ptr %14, align 8
  %91 = load ptr, ptr %2, align 8
  %92 = getelementptr inbounds nuw %struct.SDL_BlitInfo, ptr %91, i32 0, i32 1
  %93 = load ptr, ptr %92, align 8
  %94 = load i64, ptr %13, align 8
  %95 = load ptr, ptr %2, align 8
  %96 = getelementptr inbounds nuw %struct.SDL_BlitInfo, ptr %95, i32 0, i32 4
  %97 = load i32, ptr %96, align 8
  %98 = sext i32 %97 to i64
  %99 = mul i64 %94, %98
  %100 = getelementptr inbounds nuw i8, ptr %93, i64 %99
  %101 = load i64, ptr %14, align 8
  %102 = mul i64 %101, 4
  %103 = getelementptr inbounds nuw i8, ptr %100, i64 %102
  store ptr %103, ptr %19, align 8
  %104 = load ptr, ptr %19, align 8
  %105 = load i32, ptr %104, align 4
  store i32 %105, ptr %8, align 4
  %106 = load i32, ptr %8, align 4
  %107 = lshr i32 %106, 24
  %108 = trunc i32 %107 to i8
  %109 = zext i8 %108 to i32
  store i32 %109, ptr %9, align 4
  %110 = load i32, ptr %8, align 4
  %111 = lshr i32 %110, 16
  %112 = trunc i32 %111 to i8
  %113 = zext i8 %112 to i32
  store i32 %113, ptr %10, align 4
  %114 = load i32, ptr %8, align 4
  %115 = lshr i32 %114, 8
  %116 = trunc i32 %115 to i8
  %117 = zext i8 %116 to i32
  store i32 %117, ptr %11, align 4
  %118 = load i32, ptr %8, align 4
  %119 = trunc i32 %118 to i8
  %120 = zext i8 %119 to i32
  store i32 %120, ptr %12, align 4
  %121 = load i32, ptr %3, align 4
  %122 = and i32 %121, 1
  %123 = icmp ne i32 %122, 0
  br i1 %123, label %124, label %188

124:                                              ; preds = %88
  br label %125

125:                                              ; preds = %124
  call void @llvm.lifetime.start.p0(i64 2, ptr %22) #2
  %126 = load i32, ptr %9, align 4
  %127 = load i32, ptr %4, align 4
  %128 = mul i32 %126, %127
  %129 = trunc i32 %128 to i16
  store i16 %129, ptr %22, align 2
  %130 = load i16, ptr %22, align 2
  %131 = zext i16 %130 to i32
  %132 = add i32 %131, 1
  %133 = trunc i32 %132 to i16
  store i16 %133, ptr %22, align 2
  %134 = load i16, ptr %22, align 2
  %135 = zext i16 %134 to i32
  %136 = ashr i32 %135, 8
  %137 = load i16, ptr %22, align 2
  %138 = zext i16 %137 to i32
  %139 = add nsw i32 %138, %136
  %140 = trunc i32 %139 to i16
  store i16 %140, ptr %22, align 2
  %141 = load i16, ptr %22, align 2
  %142 = zext i16 %141 to i32
  %143 = ashr i32 %142, 8
  store i32 %143, ptr %9, align 4
  call void @llvm.lifetime.end.p0(i64 2, ptr %22) #2
  br label %144

144:                                              ; preds = %125
  br label %145

145:                                              ; preds = %144
  br label %146

146:                                              ; preds = %145
  call void @llvm.lifetime.start.p0(i64 2, ptr %23) #2
  %147 = load i32, ptr %10, align 4
  %148 = load i32, ptr %5, align 4
  %149 = mul i32 %147, %148
  %150 = trunc i32 %149 to i16
  store i16 %150, ptr %23, align 2
  %151 = load i16, ptr %23, align 2
  %152 = zext i16 %151 to i32
  %153 = add i32 %152, 1
  %154 = trunc i32 %153 to i16
  store i16 %154, ptr %23, align 2
  %155 = load i16, ptr %23, align 2
  %156 = zext i16 %155 to i32
  %157 = ashr i32 %156, 8
  %158 = load i16, ptr %23, align 2
  %159 = zext i16 %158 to i32
  %160 = add nsw i32 %159, %157
  %161 = trunc i32 %160 to i16
  store i16 %161, ptr %23, align 2
  %162 = load i16, ptr %23, align 2
  %163 = zext i16 %162 to i32
  %164 = ashr i32 %163, 8
  store i32 %164, ptr %10, align 4
  call void @llvm.lifetime.end.p0(i64 2, ptr %23) #2
  br label %165

165:                                              ; preds = %146
  br label %166

166:                                              ; preds = %165
  br label %167

167:                                              ; preds = %166
  call void @llvm.lifetime.start.p0(i64 2, ptr %24) #2
  %168 = load i32, ptr %11, align 4
  %169 = load i32, ptr %6, align 4
  %170 = mul i32 %168, %169
  %171 = trunc i32 %170 to i16
  store i16 %171, ptr %24, align 2
  %172 = load i16, ptr %24, align 2
  %173 = zext i16 %172 to i32
  %174 = add i32 %173, 1
  %175 = trunc i32 %174 to i16
  store i16 %175, ptr %24, align 2
  %176 = load i16, ptr %24, align 2
  %177 = zext i16 %176 to i32
  %178 = ashr i32 %177, 8
  %179 = load i16, ptr %24, align 2
  %180 = zext i16 %179 to i32
  %181 = add nsw i32 %180, %178
  %182 = trunc i32 %181 to i16
  store i16 %182, ptr %24, align 2
  %183 = load i16, ptr %24, align 2
  %184 = zext i16 %183 to i32
  %185 = ashr i32 %184, 8
  store i32 %185, ptr %11, align 4
  call void @llvm.lifetime.end.p0(i64 2, ptr %24) #2
  br label %186

186:                                              ; preds = %167
  br label %187

187:                                              ; preds = %186
  br label %188

188:                                              ; preds = %187, %88
  %189 = load i32, ptr %3, align 4
  %190 = and i32 %189, 2
  %191 = icmp ne i32 %190, 0
  br i1 %191, label %192, label %214

192:                                              ; preds = %188
  br label %193

193:                                              ; preds = %192
  call void @llvm.lifetime.start.p0(i64 2, ptr %25) #2
  %194 = load i32, ptr %12, align 4
  %195 = load i32, ptr %7, align 4
  %196 = mul i32 %194, %195
  %197 = trunc i32 %196 to i16
  store i16 %197, ptr %25, align 2
  %198 = load i16, ptr %25, align 2
  %199 = zext i16 %198 to i32
  %200 = add i32 %199, 1
  %201 = trunc i32 %200 to i16
  store i16 %201, ptr %25, align 2
  %202 = load i16, ptr %25, align 2
  %203 = zext i16 %202 to i32
  %204 = ashr i32 %203, 8
  %205 = load i16, ptr %25, align 2
  %206 = zext i16 %205 to i32
  %207 = add nsw i32 %206, %204
  %208 = trunc i32 %207 to i16
  store i16 %208, ptr %25, align 2
  %209 = load i16, ptr %25, align 2
  %210 = zext i16 %209 to i32
  %211 = ashr i32 %210, 8
  store i32 %211, ptr %12, align 4
  call void @llvm.lifetime.end.p0(i64 2, ptr %25) #2
  br label %212

212:                                              ; preds = %193
  br label %213

213:                                              ; preds = %212
  br label %214

214:                                              ; preds = %213, %188
  %215 = load i32, ptr %12, align 4
  %216 = shl i32 %215, 24
  %217 = load i32, ptr %9, align 4
  %218 = shl i32 %217, 16
  %219 = or i32 %216, %218
  %220 = load i32, ptr %10, align 4
  %221 = shl i32 %220, 8
  %222 = or i32 %219, %221
  %223 = load i32, ptr %11, align 4
  %224 = or i32 %222, %223
  store i32 %224, ptr %8, align 4
  %225 = load i32, ptr %8, align 4
  %226 = load ptr, ptr %20, align 8
  store i32 %225, ptr %226, align 4
  %227 = load i64, ptr %18, align 8
  %228 = load i64, ptr %16, align 8
  %229 = add i64 %228, %227
  store i64 %229, ptr %16, align 8
  %230 = load ptr, ptr %20, align 8
  %231 = getelementptr inbounds nuw i32, ptr %230, i32 1
  store ptr %231, ptr %20, align 8
  br label %84, !llvm.loop !208

232:                                              ; preds = %84
  %233 = load i64, ptr %17, align 8
  %234 = load i64, ptr %15, align 8
  %235 = add i64 %234, %233
  store i64 %235, ptr %15, align 8
  %236 = load ptr, ptr %2, align 8
  %237 = getelementptr inbounds nuw %struct.SDL_BlitInfo, ptr %236, i32 0, i32 10
  %238 = load i32, ptr %237, align 8
  %239 = load ptr, ptr %2, align 8
  %240 = getelementptr inbounds nuw %struct.SDL_BlitInfo, ptr %239, i32 0, i32 7
  %241 = load ptr, ptr %240, align 8
  %242 = sext i32 %238 to i64
  %243 = getelementptr inbounds i8, ptr %241, i64 %242
  store ptr %243, ptr %240, align 8
  call void @llvm.lifetime.end.p0(i64 4, ptr %21) #2
  call void @llvm.lifetime.end.p0(i64 8, ptr %20) #2
  call void @llvm.lifetime.end.p0(i64 8, ptr %19) #2
  br label %67, !llvm.loop !209

244:                                              ; preds = %67
  call void @llvm.lifetime.end.p0(i64 8, ptr %18) #2
  call void @llvm.lifetime.end.p0(i64 8, ptr %17) #2
  call void @llvm.lifetime.end.p0(i64 8, ptr %16) #2
  call void @llvm.lifetime.end.p0(i64 8, ptr %15) #2
  call void @llvm.lifetime.end.p0(i64 8, ptr %14) #2
  call void @llvm.lifetime.end.p0(i64 8, ptr %13) #2
  call void @llvm.lifetime.end.p0(i64 4, ptr %12) #2
  call void @llvm.lifetime.end.p0(i64 4, ptr %11) #2
  call void @llvm.lifetime.end.p0(i64 4, ptr %10) #2
  call void @llvm.lifetime.end.p0(i64 4, ptr %9) #2
  call void @llvm.lifetime.end.p0(i64 4, ptr %8) #2
  call void @llvm.lifetime.end.p0(i64 4, ptr %7) #2
  call void @llvm.lifetime.end.p0(i64 4, ptr %6) #2
  call void @llvm.lifetime.end.p0(i64 4, ptr %5) #2
  call void @llvm.lifetime.end.p0(i64 4, ptr %4) #2
  call void @llvm.lifetime.end.p0(i64 4, ptr %3) #2
  ret void
}